target datalayout = "e-m:e-p270:32:32-p271:32:32-p272:64:64-i64:64-i128:128-f80:128-n8:16:32:64-S128"
target triple = "x86_64-pc-linux-gnu"

; Function Attrs: mustprogress nounwind uwtable
define noundef ptr @_ZN6LibRaw10strcasestrEPcPKc(ptr noundef %0, ptr noundef %1) #1 align 2 {
  %3 = alloca ptr, align 8
  %4 = alloca ptr, align 8
  %5 = alloca ptr, align 8
  %6 = alloca ptr, align 8
  %7 = alloca i32, align 4
  store ptr %0, ptr %4, align 8, !tbaa !77
  store ptr %1, ptr %5, align 8, !tbaa !77
  call void @llvm.lifetime.start.p0(i64 8, ptr %6) #7
  %8 = load ptr, ptr %4, align 8, !tbaa !77
  store ptr %8, ptr %6, align 8, !tbaa !77
  br label %9

9:                                                ; preds = %23, %2
  %10 = load ptr, ptr %6, align 8, !tbaa !77
  %11 = load i8, ptr %10, align 1, !tbaa !76
  %12 = icmp ne i8 %11, 0
  br i1 %12, label %13, label %26

13:                                               ; preds = %9
  %14 = load ptr, ptr %6, align 8, !tbaa !77
  %15 = load ptr, ptr %5, align 8, !tbaa !77
  %16 = load ptr, ptr %5, align 8, !tbaa !77
  %17 = call i64 @strlen(ptr noundef %16) #8
  %18 = call i32 @strncasecmp(ptr noundef %14, ptr noundef %15, i64 noundef %17) #8
  %19 = icmp ne i32 %18, 0
  br i1 %19, label %22, label %20

20:                                               ; preds = %13
  %21 = load ptr, ptr %6, align 8, !tbaa !77
  store ptr %21, ptr %3, align 8
  store i32 1, ptr %7, align 4
  br label %27

22:                                               ; preds = %13
  br label %23

23:                                               ; preds = %22
  %24 = load ptr, ptr %6, align 8, !tbaa !77
  %25 = getelementptr inbounds nuw i8, ptr %24, i32 1
  store ptr %25, ptr %6, align 8, !tbaa !77
  br label %9, !llvm.loop !79

26:                                               ; preds = %9
  store ptr null, ptr %3, align 8
  store i32 1, ptr %7, align 4
  br label %27

27:                                               ; preds = %26, %20
  call void @llvm.lifetime.end.p0(i64 8, ptr %6) #7
  %28 = load ptr, ptr %3, align 8
  ret ptr %28
}