; Function Attrs: mustprogress nofree nounwind willreturn memory(read) uwtable
define noundef ptr @_ZN6LibRaw10strcasestrEPcPKc(ptr noundef readonly %0, ptr noundef readonly captures(none) %1) local_unnamed_addr #4 align 2 {
  %3 = load i8, ptr %0, align 1, !tbaa !73
  %.not10 = icmp eq i8 %3, 0
  br i1 %.not10, label %._crit_edge, label %.lr.ph

.lr.ph:                                           ; preds = %2
  %4 = tail call i64 @strlen(ptr noundef nonnull dereferenceable(1) %1) #16
  br label %5

5:                                                ; preds = %.lr.ph, %7
  %.011 = phi ptr [ %0, %.lr.ph ], [ %8, %7 ]
  %6 = tail call i32 @strncasecmp(ptr noundef nonnull %.011, ptr noundef nonnull %1, i64 noundef %4) #16
  %.not9 = icmp eq i32 %6, 0
  br i1 %.not9, label %._crit_edge, label %7

7:                                                ; preds = %5
  %8 = getelementptr inbounds nuw i8, ptr %.011, i64 1
  %9 = load i8, ptr %8, align 1, !tbaa !73
  %.not = icmp eq i8 %9, 0
  br i1 %.not, label %._crit_edge, label %5, !llvm.loop !74

._crit_edge:                                      ; preds = %5, %7, %2
  %.08 = phi ptr [ null, %2 ], [ null, %7 ], [ %.011, %5 ]
  ret ptr %.08
}